target datalayout = "e-m:e-p270:32:32-p271:32:32-p272:64:64-i64:64-i128:128-f80:128-n8:16:32:64-S128"
target triple = "x86_64-unknown-linux-gnu"

%"union.absl::lts_20230802::internal_any_invocable::TypeErasedState" = type { %struct.anon }
%struct.anon = type { ptr, i64 }
%"class.absl::lts_20230802::AnyInvocable.6" = type { %"class.absl::lts_20230802::internal_any_invocable::Impl.7" }
%"class.absl::lts_20230802::internal_any_invocable::Impl.7" = type { %"class.absl::lts_20230802::internal_any_invocable::CoreImpl.8" }
%"class.absl::lts_20230802::internal_any_invocable::CoreImpl.8" = type { %"union.absl::lts_20230802::internal_any_invocable::TypeErasedState", ptr, ptr }
%"class.std::__shared_count" = type { ptr }
%"class.std::shared_ptr.44" = type { %"class.std::__shared_ptr.45" }
%"class.std::__shared_ptr.45" = type { ptr, %"class.std::__shared_count" }
%"class.grpc_event_engine::experimental::PosixEnginePollerManager" = type <{ %"class.grpc_event_engine::experimental::Scheduler", %"class.std::shared_ptr.54", %"struct.std::atomic.57", [4 x i8], %"class.std::shared_ptr.44", i8, [7 x i8] }>
%"class.grpc_event_engine::experimental::Scheduler" = type { ptr }
%"class.std::shared_ptr.54" = type { %"class.std::__shared_ptr.55" }
%"class.std::__shared_ptr.55" = type { ptr, %"class.std::__shared_count" }
%"struct.std::atomic.57" = type { i32 }

; Function Attrs: mustprogress nounwind uwtable
define linkonce_odr void @_ZN4absl12lts_2023080222internal_any_invocable8CoreImplILb0EvJEED2Ev(ptr noundef nonnull align 16 dereferenceable(32) %this) unnamed_addr #5 comdat align 2 {
entry:
  %this.addr = alloca ptr, align 8
  store ptr %this, ptr %this.addr, align 8
  %this1 = load ptr, ptr %this.addr, align 8
  %manager_ = getelementptr inbounds %"class.absl::lts_20230802::internal_any_invocable::CoreImpl.8", ptr %this1, i32 0, i32 1
  %0 = load ptr, ptr %manager_, align 16
  %state_ = getelementptr inbounds %"class.absl::lts_20230802::internal_any_invocable::CoreImpl.8", ptr %this1, i32 0, i32 0
  %state_2 = getelementptr inbounds %"class.absl::lts_20230802::internal_any_invocable::CoreImpl.8", ptr %this1, i32 0, i32 0
  call void %0(i1 noundef zeroext true, ptr noundef %state_, ptr noundef %state_2) #3
  ret void
}

; Function Attrs: mustprogress nounwind uwtable
define linkonce_odr void @_ZN4absl12lts_2023080222internal_any_invocable8CoreImplILb0EvJEEC2EOS3_(ptr noundef nonnull align 16 dereferenceable(32) %this, ptr noundef nonnull align 16 dereferenceable(32) %other) unnamed_addr #5 comdat align 2 {
entry:
  %this.addr = alloca ptr, align 8
  %other.addr = alloca ptr, align 8
  store ptr %this, ptr %this.addr, align 8
  store ptr %other, ptr %other.addr, align 8
  %this1 = load ptr, ptr %this.addr, align 8
  %0 = load ptr, ptr %other.addr, align 8
  %manager_ = getelementptr inbounds %"class.absl::lts_20230802::internal_any_invocable::CoreImpl.8", ptr %0, i32 0, i32 1
  %1 = load ptr, ptr %manager_, align 16
  %2 = load ptr, ptr %other.addr, align 8
  %state_2 = getelementptr inbounds %"class.absl::lts_20230802::internal_any_invocable::CoreImpl.8", ptr %2, i32 0, i32 0
  %state_3 = getelementptr inbounds %"class.absl::lts_20230802::internal_any_invocable::CoreImpl.8", ptr %this1, i32 0, i32 0
  call void %1(i1 noundef zeroext false, ptr noundef %state_2, ptr noundef %state_3) #3
  %3 = load ptr, ptr %other.addr, align 8
  %manager_4 = getelementptr inbounds %"class.absl::lts_20230802::internal_any_invocable::CoreImpl.8", ptr %3, i32 0, i32 1
  %4 = load ptr, ptr %manager_4, align 16
  %manager_5 = getelementptr inbounds %"class.absl::lts_20230802::internal_any_invocable::CoreImpl.8", ptr %this1, i32 0, i32 1
  store ptr %4, ptr %manager_5, align 16
  %5 = load ptr, ptr %other.addr, align 8
  %invoker_ = getelementptr inbounds %"class.absl::lts_20230802::internal_any_invocable::CoreImpl.8", ptr %5, i32 0, i32 2
  %6 = load ptr, ptr %invoker_, align 8
  %invoker_6 = getelementptr inbounds %"class.absl::lts_20230802::internal_any_invocable::CoreImpl.8", ptr %this1, i32 0, i32 2
  store ptr %6, ptr %invoker_6, align 8
  %7 = load ptr, ptr %other.addr, align 8
  %manager_7 = getelementptr inbounds %"class.absl::lts_20230802::internal_any_invocable::CoreImpl.8", ptr %7, i32 0, i32 1
  store ptr @_ZN4absl12lts_2023080222internal_any_invocable12EmptyManagerENS1_14FunctionToCallEPNS1_15TypeErasedStateES4_, ptr %manager_7, align 16
  %8 = load ptr, ptr %other.addr, align 8
  %invoker_8 = getelementptr inbounds %"class.absl::lts_20230802::internal_any_invocable::CoreImpl.8", ptr %8, i32 0, i32 2
  store ptr null, ptr %invoker_8, align 8
  ret void
}

; Function Attrs: mustprogress nounwind uwtable
define linkonce_odr noundef ptr @_ZNKSt12__shared_ptrIN17grpc_event_engine12experimental10ThreadPoolELN9__gnu_cxx12_Lock_policyE2EE3getEv(ptr noundef nonnull align 8 dereferenceable(16) %this) #5 comdat align 2 {
entry:
  %this.addr = alloca ptr, align 8
  store ptr %this, ptr %this.addr, align 8
  %this1 = load ptr, ptr %this.addr, align 8
  %_M_ptr = getelementptr inbounds %"class.std::__shared_ptr.45", ptr %this1, i32 0, i32 0
  %0 = load ptr, ptr %_M_ptr, align 8
  ret ptr %0
}

; Function Attrs: mustprogress nounwind uwtable
define linkonce_odr void @_ZN4absl12lts_2023080222internal_any_invocable4ImplIFvvEED2Ev(ptr noundef nonnull align 16 dereferenceable(32) %this) unnamed_addr #5 comdat align 2 {
entry:
  %this.addr = alloca ptr, align 8
  store ptr %this, ptr %this.addr, align 8
  %this1 = load ptr, ptr %this.addr, align 8
  call void @_ZN4absl12lts_2023080222internal_any_invocable8CoreImplILb0EvJEED2Ev(ptr noundef nonnull align 16 dereferenceable(32) %this1) #3
  ret void
}

; Function Attrs: mustprogress nounwind uwtable
define linkonce_odr void @_ZN4absl12lts_2023080222internal_any_invocable4ImplIFvvEEC2EOS4_(ptr noundef nonnull align 16 dereferenceable(32) %this, ptr noundef nonnull align 16 dereferenceable(32) %0) unnamed_addr #5 comdat align 2 {
entry:
  %this.addr = alloca ptr, align 8
  %.addr = alloca ptr, align 8
  store ptr %this, ptr %this.addr, align 8
  store ptr %0, ptr %.addr, align 8
  %this1 = load ptr, ptr %this.addr, align 8
  %1 = load ptr, ptr %.addr, align 8
  call void @_ZN4absl12lts_2023080222internal_any_invocable8CoreImplILb0EvJEEC2EOS3_(ptr noundef nonnull align 16 dereferenceable(32) %this1, ptr noundef nonnull align 16 dereferenceable(32) %1) #3
  ret void
}

; Function Attrs: mustprogress nounwind uwtable
define linkonce_odr noundef ptr @_ZNKSt19__shared_ptr_accessIN17grpc_event_engine12experimental10ThreadPoolELN9__gnu_cxx12_Lock_policyE2ELb0ELb0EE6_M_getEv(ptr noundef nonnull align 1 dereferenceable(1) %this) #5 comdat align 2 {
entry:
  %this.addr = alloca ptr, align 8
  store ptr %this, ptr %this.addr, align 8
  %this1 = load ptr, ptr %this.addr, align 8
  %call = call noundef ptr @_ZNKSt12__shared_ptrIN17grpc_event_engine12experimental10ThreadPoolELN9__gnu_cxx12_Lock_policyE2EE3getEv(ptr noundef nonnull align 8 dereferenceable(16) %this1) #3
  ret ptr %call
}

; Function Attrs: mustprogress nounwind uwtable
define linkonce_odr noundef zeroext i1 @_ZNKSt12__shared_ptrIN17grpc_event_engine12experimental10ThreadPoolELN9__gnu_cxx12_Lock_policyE2EEcvbEv(ptr noundef nonnull align 8 dereferenceable(16) %this) #5 comdat align 2 {
entry:
  %this.addr = alloca ptr, align 8
  store ptr %this, ptr %this.addr, align 8
  %this1 = load ptr, ptr %this.addr, align 8
  %_M_ptr = getelementptr inbounds %"class.std::__shared_ptr.45", ptr %this1, i32 0, i32 0
  %0 = load ptr, ptr %_M_ptr, align 8
  %cmp = icmp ne ptr %0, null
  ret i1 %cmp
}

; Function Attrs: mustprogress nounwind uwtable
define linkonce_odr void @_ZN4absl12lts_2023080212AnyInvocableIFvvEED2Ev(ptr noundef nonnull align 16 dereferenceable(32) %this) unnamed_addr #5 comdat align 2 {
entry:
  %this.addr = alloca ptr, align 8
  store ptr %this, ptr %this.addr, align 8
  %this1 = load ptr, ptr %this.addr, align 8
  call void @_ZN4absl12lts_2023080222internal_any_invocable4ImplIFvvEED2Ev(ptr noundef nonnull align 16 dereferenceable(32) %this1) #3
  ret void
}

; Function Attrs: mustprogress nounwind uwtable
define linkonce_odr void @_ZN4absl12lts_2023080212AnyInvocableIFvvEEC2EOS3_(ptr noundef nonnull align 16 dereferenceable(32) %this, ptr noundef nonnull align 16 dereferenceable(32) %0) unnamed_addr #5 comdat align 2 {
entry:
  %this.addr = alloca ptr, align 8
  %.addr = alloca ptr, align 8
  store ptr %this, ptr %this.addr, align 8
  store ptr %0, ptr %.addr, align 8
  %this1 = load ptr, ptr %this.addr, align 8
  %1 = load ptr, ptr %.addr, align 8
  call void @_ZN4absl12lts_2023080222internal_any_invocable4ImplIFvvEEC2EOS4_(ptr noundef nonnull align 16 dereferenceable(32) %this1, ptr noundef nonnull align 16 dereferenceable(32) %1) #3
  ret void
}

; Function Attrs: mustprogress nounwind uwtable
define linkonce_odr noundef ptr @_ZNKSt19__shared_ptr_accessIN17grpc_event_engine12experimental10ThreadPoolELN9__gnu_cxx12_Lock_policyE2ELb0ELb0EEptEv(ptr noundef nonnull align 1 dereferenceable(1) %this) #5 comdat align 2 {
entry:
  %this.addr = alloca ptr, align 8
  store ptr %this, ptr %this.addr, align 8
  %this1 = load ptr, ptr %this.addr, align 8
  %call = call noundef ptr @_ZNKSt19__shared_ptr_accessIN17grpc_event_engine12experimental10ThreadPoolELN9__gnu_cxx12_Lock_policyE2ELb0ELb0EE6_M_getEv(ptr noundef nonnull align 1 dereferenceable(1) %this1) #3
  ret ptr %call
}

; Function Attrs: mustprogress nounwind uwtable
define linkonce_odr noundef zeroext i1 @_ZStneIN17grpc_event_engine12experimental10ThreadPoolEEbRKSt10shared_ptrIT_EDn(ptr noundef nonnull align 8 dereferenceable(16) %__a, ptr %0) #5 comdat {
entry:
  %__a.addr = alloca ptr, align 8
  %.addr = alloca ptr, align 8
  store ptr %__a, ptr %__a.addr, align 8
  store ptr %0, ptr %.addr, align 8
  %1 = load ptr, ptr %__a.addr, align 8
  %call = call noundef zeroext i1 @_ZNKSt12__shared_ptrIN17grpc_event_engine12experimental10ThreadPoolELN9__gnu_cxx12_Lock_policyE2EEcvbEv(ptr noundef nonnull align 8 dereferenceable(16) %1) #3
  ret i1 %call
}

; Function Attrs: mustprogress uwtable
define void @_ZN17grpc_event_engine12experimental24PosixEnginePollerManager3RunEN4absl12lts_2023080212AnyInvocableIFvvEEE(ptr noundef nonnull align 8 dereferenceable(49) %this, ptr noundef %cb) unnamed_addr #4 align 2 personality ptr @__gxx_personality_v0 {
entry:
  %this.addr = alloca ptr, align 8
  %cb.indirect_addr = alloca ptr, align 8
  %agg.tmp = alloca %"class.absl::lts_20230802::AnyInvocable.6", align 16
  %exn.slot = alloca ptr, align 8
  %ehselector.slot = alloca i32, align 4
  store ptr %this, ptr %this.addr, align 8
  store ptr %cb, ptr %cb.indirect_addr, align 8
  %this1 = load ptr, ptr %this.addr, align 8
  %executor_ = getelementptr inbounds %"class.grpc_event_engine::experimental::PosixEnginePollerManager", ptr %this1, i32 0, i32 4
  %call = call noundef zeroext i1 @_ZStneIN17grpc_event_engine12experimental10ThreadPoolEEbRKSt10shared_ptrIT_EDn(ptr noundef nonnull align 8 dereferenceable(16) %executor_, ptr null) #3
  br i1 %call, label %if.then, label %if.end

if.then:                                          ; preds = %entry
  %executor_2 = getelementptr inbounds %"class.grpc_event_engine::experimental::PosixEnginePollerManager", ptr %this1, i32 0, i32 4
  %call3 = call noundef ptr @_ZNKSt19__shared_ptr_accessIN17grpc_event_engine12experimental10ThreadPoolELN9__gnu_cxx12_Lock_policyE2ELb0ELb0EEptEv(ptr noundef nonnull align 1 dereferenceable(1) %executor_2) #3
  call void @_ZN4absl12lts_2023080212AnyInvocableIFvvEEC2EOS3_(ptr noundef nonnull align 16 dereferenceable(32) %agg.tmp, ptr noundef nonnull align 16 dereferenceable(32) %cb) #3
  %vtable = load ptr, ptr %call3, align 8
  %vfn = getelementptr inbounds ptr, ptr %vtable, i64 6
  %0 = load ptr, ptr %vfn, align 8
  invoke void %0(ptr noundef nonnull align 8 dereferenceable(8) %call3, ptr noundef %agg.tmp)
          to label %invoke.cont unwind label %lpad

invoke.cont:                                      ; preds = %if.then
  call void @_ZN4absl12lts_2023080212AnyInvocableIFvvEED2Ev(ptr noundef nonnull align 16 dereferenceable(32) %agg.tmp) #3
  br label %if.end

lpad:                                             ; preds = %if.then
  %1 = landingpad { ptr, i32 }
          cleanup
  %2 = extractvalue { ptr, i32 } %1, 0
  store ptr %2, ptr %exn.slot, align 8
  %3 = extractvalue { ptr, i32 } %1, 1
  store i32 %3, ptr %ehselector.slot, align 4
  call void @_ZN4absl12lts_2023080212AnyInvocableIFvvEED2Ev(ptr noundef nonnull align 16 dereferenceable(32) %agg.tmp) #3
  br label %eh.resume

if.end:                                           ; preds = %invoke.cont, %entry
  ret void

eh.resume:                                        ; preds = %lpad
  %exn = load ptr, ptr %exn.slot, align 8
  %sel = load i32, ptr %ehselector.slot, align 4
  %lpad.val = insertvalue { ptr, i32 } poison, ptr %exn, 0
  %lpad.val4 = insertvalue { ptr, i32 } %lpad.val, i32 %sel, 1
  resume { ptr, i32 } %lpad.val4
}