; Function Attrs: mustprogress uwtable
define void @_ZN17grpc_event_engine12experimental24PosixEnginePollerManager3RunEN4absl12lts_2023080212AnyInvocableIFvvEEE(ptr nocapture noundef nonnull readonly align 8 dereferenceable(49) %this, ptr noundef %cb) unnamed_addr #3 align 2 personality ptr @__gxx_personality_v0 {
entry:
  %agg.tmp = alloca %"class.absl::lts_20230802::AnyInvocable.6", align 16
  %executor_ = getelementptr inbounds i8, ptr %this, i64 32
  %0 = load ptr, ptr %executor_, align 8
  %cmp.i.i.not = icmp eq ptr %0, null
  br i1 %cmp.i.i.not, label %if.end, label %if.then

if.then:                                          ; preds = %entry
  %manager_.i.i.i = getelementptr inbounds i8, ptr %cb, i64 16
  %1 = load ptr, ptr %manager_.i.i.i, align 16
  call void %1(i1 noundef zeroext false, ptr noundef nonnull %cb, ptr noundef nonnull %agg.tmp) #26
  %manager_5.i.i.i = getelementptr inbounds i8, ptr %agg.tmp, i64 16
  %invoker_.i.i.i = getelementptr inbounds i8, ptr %cb, i64 24
  %2 = load <2 x ptr>, ptr %manager_.i.i.i, align 16
  store <2 x ptr> %2, ptr %manager_5.i.i.i, align 16
  store ptr @_ZN4absl12lts_2023080222internal_any_invocable12EmptyManagerENS1_14FunctionToCallEPNS1_15TypeErasedStateES4_, ptr %manager_.i.i.i, align 16
  store ptr null, ptr %invoker_.i.i.i, align 8
  %vtable = load ptr, ptr %0, align 8
  %vfn = getelementptr inbounds i8, ptr %vtable, i64 48
  %3 = load ptr, ptr %vfn, align 8
  invoke void %3(ptr noundef nonnull align 8 dereferenceable(8) %0, ptr noundef nonnull %agg.tmp)
          to label %invoke.cont unwind label %lpad

invoke.cont:                                      ; preds = %if.then
  %4 = load ptr, ptr %manager_5.i.i.i, align 16
  call void %4(i1 noundef zeroext true, ptr noundef nonnull %agg.tmp, ptr noundef nonnull %agg.tmp) #26
  br label %if.end

lpad:                                             ; preds = %if.then
  %5 = landingpad { ptr, i32 }
          cleanup
  %6 = load ptr, ptr %manager_5.i.i.i, align 16
  call void %6(i1 noundef zeroext true, ptr noundef nonnull %agg.tmp, ptr noundef nonnull %agg.tmp) #26
  resume { ptr, i32 } %5

if.end:                                           ; preds = %invoke.cont, %entry
  ret void
}